; Function Attrs: nofree nounwind uwtable
define noalias noundef ptr @gvNEWcontext(ptr noundef %0, i32 noundef %1) local_unnamed_addr #0 {
  %3 = tail call noalias dereferenceable_or_null(584) ptr @calloc(i64 noundef 1, i64 noundef 584) #9
  %4 = icmp eq ptr %3, null
  br i1 %4, label %5, label %gv_alloc.exit

5:                                                ; preds = %2
  %6 = load ptr, ptr @stderr, align 8, !tbaa !3
  %7 = tail call i32 (ptr, ptr, ...) @fprintf(ptr noundef %6, ptr noundef nonnull @.str.1, i64 noundef 584) #10
  tail call fastcc void @graphviz_exit() #11
  unreachable

gv_alloc.exit:                                    ; preds = %2
  store ptr @LibInfo, ptr %3, align 8, !tbaa !8
  %8 = getelementptr inbounds nuw i8, ptr %3, i64 24
  store ptr @agerrorf, ptr %8, align 8, !tbaa !31
  %9 = getelementptr inbounds nuw i8, ptr %3, i64 56
  store ptr %0, ptr %9, align 8, !tbaa !32
  %10 = getelementptr inbounds nuw i8, ptr %3, i64 64
  store i32 %1, ptr %10, align 8, !tbaa !33
  ret ptr %3
}